Microsoft (R) Macro Assembler Version 6.15.8803		    10/11/05 00:35:09
ast9_mn.asm						     Page 1 - 1


				;  CSC 218, Assignment #9
				;  Provided Main Program.

				; DO NOT EDIT THIS FILE!



				.model	small

				; ---------------------------------------------------------------

 0000				.data

				; -----
				; Constants.

 = 000A				LF	equ	10			; line feed
 = 000D				CR	equ	13			; carridge return
 = 0024				END_STR	equ	"$"			; end of string


				; -----
				;  Variables for main.

 0000 0D 0A 2A 2A 2A 2A		intro		db	CR, LF, "**************************************"
       2A 2A 2A 2A 2A 2A
       2A 2A 2A 2A 2A 2A
       2A 2A 2A 2A 2A 2A
       2A 2A 2A 2A 2A 2A
       2A 2A 2A 2A 2A 2A
       2A 2A 2A 2A
 0028  0D 0A 43 53 43 32			db	CR, LF, "CSC218 - Race Time Calculation Program"
       31 38 20 2D 20 52
       61 63 65 20 54 69
       6D 65 20 43 61 6C
       63 75 6C 61 74 69
       6F 6E 20 50 72 6F
       67 72 61 6D
 0050  0D 0A 0D 0A 24				db	CR, LF, CR, LF, END_STR


 0055  001F [			r_name		db	31 dup (20h)
        20
       ]

 0074 00			r_start_day	db	?			; 0=Su, 1=Mo, etc.
 0075 00 00 00			r_start_time	db	?, ?, ?			; hours, mins, secs

 0078 00 00 00			r_len		db	?, ?, ?			; hours, mins, secs

 007B 00			r_end_day	db	?			; 0=Su, 1=Mo, etc.
 007C 00 00 00			r_end_time	db	?, ?, ?			; hours, mins, secs


				; ---------------------------------------------------------------

				.stack

 0000				.code

				extrn	read_race_info:near
				extrn	calc_end_time:near
				extrn	disp_race_info:near


				; ---------------

 0000				main	proc	far
 0000  B8 ---- R			mov	ax, @data		; initialization
 0003  8E D8				mov	ds, ax

				; -----
				;  Display intro message.

 0005  B4 09				mov	ah, 09h
 0007  8D 16 0000 R			lea	dx, intro
 000B  CD 21				int	21h

				; -----
				;  Get race information.
				;  Includes race name, start day, start time (h/m/s), and race
				;  length (h/m/s).
				;  Note, procedure performs all error checking and conversion
				;  of ASCII date to interger.

 000D  8D 06 0055 R			lea	ax, r_name
 0011  50				push	ax
 0012  8D 06 0074 R			lea	ax, r_start_day
 0016  50				push	ax
 0017  8D 06 0075 R			lea	ax, r_start_time
 001B  50				push	ax
 001C  8D 06 0078 R			lea	ax, r_len
 0020  50				push	ax
 0021  E8 0000 E			call	read_race_info


				; -----
				;  Calculate race end day and time (h/m/s).
				;  Uses race start day, race start time, and race length.

 0024  8D 06 0074 R			lea	ax, r_start_day
 0028  50				push	ax
 0029  8D 06 0075 R			lea	ax, r_start_time
 002D  50				push	ax
 002E  8D 06 0078 R			lea	ax, r_len
 0032  50				push	ax
 0033  8D 06 007B R			lea	ax, r_end_day
 0037  50				push	ax
 0038  8D 06 007C R			lea	ax, r_end_time
 003C  50				push	ax
 003D  E8 0000 E			call	calc_end_time


				;  Display race information.
				;  Includes race name, race start day, race start time,
				;  race end day, and race end time.
				;  Note, converts 24 hours times to 12 hour AM/PM format.
				;  Procedure converts integer times to ASCII for display.

 0040  8D 06 0055 R			lea	ax, r_name
 0044  50				push	ax
 0045  8D 06 0074 R			lea	ax, r_start_day
 0049  50				push	ax
 004A  8D 06 0075 R			lea	ax, r_start_time
 004E  50				push	ax
 004F  8D 06 007B R			lea	ax, r_end_day
 0053  50				push	ax
 0054  8D 06 007C R			lea	ax, r_end_time
 0058  50				push	ax
 0059  E8 0000 E			call	disp_race_info


				; -----
				;  Done, terminate program.

 005C				last:
 005C  B4 4C				mov	ah, 4ch
 005E  CD 21				int	21h

 0060				main	endp

				end	main
Microsoft (R) Macro Assembler Version 6.15.8803		    10/11/05 00:35:09
ast9_mn.asm						     Symbols 2 - 1




Segments and Groups:

                N a m e                 Size     Length   Align   Combine Class

DGROUP . . . . . . . . . . . . .	GROUP
_DATA  . . . . . . . . . . . . .	16 Bit	 007F	  Word	  Public  'DATA'	
STACK  . . . . . . . . . . . . .	16 Bit	 0400	  Para	  Stack	  'STACK'	 
_TEXT  . . . . . . . . . . . . .	16 Bit	 0060	  Word	  Public  'CODE'	


Procedures,  parameters and locals:

                N a m e                 Type     Value    Attr

main . . . . . . . . . . . . . .	P Far	 0000	  _TEXT	Length= 0060 Public
  last . . . . . . . . . . . . .	L Near	 005C	  _TEXT	


Symbols:

                N a m e                 Type     Value    Attr

@CodeSize  . . . . . . . . . . .	Number	 0000h	 
@DataSize  . . . . . . . . . . .	Number	 0000h	 
@Interface . . . . . . . . . . .	Number	 0000h	 
@Model . . . . . . . . . . . . .	Number	 0002h	 
@code  . . . . . . . . . . . . .	Text   	 _TEXT
@data  . . . . . . . . . . . . .	Text   	 DGROUP
@fardata?  . . . . . . . . . . .	Text   	 FAR_BSS
@fardata . . . . . . . . . . . .	Text   	 FAR_DATA
@stack . . . . . . . . . . . . .	Text   	 DGROUP
CR . . . . . . . . . . . . . . .	Number	 000Dh	 
END_STR  . . . . . . . . . . . .	Number	 0024h	 
LF . . . . . . . . . . . . . . .	Number	 000Ah	 
calc_end_time  . . . . . . . . .	L Near	 0000	  _TEXT	External
disp_race_info . . . . . . . . .	L Near	 0000	  _TEXT	External
intro  . . . . . . . . . . . . .	Byte	 0000	  _DATA	
r_end_day  . . . . . . . . . . .	Byte	 007B	  _DATA	
r_end_time . . . . . . . . . . .	Byte	 007C	  _DATA	
r_len  . . . . . . . . . . . . .	Byte	 0078	  _DATA	
r_name . . . . . . . . . . . . .	Byte	 0055	  _DATA	
r_start_day  . . . . . . . . . .	Byte	 0074	  _DATA	
r_start_time . . . . . . . . . .	Byte	 0075	  _DATA	
read_race_info . . . . . . . . .	L Near	 0000	  _TEXT	External

	   0 Warnings
	   0 Errors
